; ModuleID = '28/626.c'
source_filename = "28/626.c"
target datalayout = "e-m:e-p270:32:32-p271:32:32-p272:64:64-i64:64-f80:128-n8:16:32:64-S128"
target triple = "x86_64-pc-linux-gnu"

@.str = private unnamed_addr constant [4 x i8] c"%d,\00", align 1
@.str.1 = private unnamed_addr constant [3 x i8] c"%d\00", align 1

; Function Attrs: noinline nounwind uwtable
define dso_local void @main() #0 {
  %1 = alloca i32, align 4
  %2 = alloca [300 x i32], align 16
  %3 = alloca i32, align 4
  %4 = alloca i32, align 4
  %5 = alloca i32, align 4
  %6 = alloca [3000 x i8], align 16
  %7 = getelementptr inbounds [3000 x i8], [3000 x i8]* %6, i64 0, i64 0
  %8 = call i32 (i8*, ...) bitcast (i32 (...)* @gets to i32 (i8*, ...)*)(i8* %7)
  %9 = getelementptr inbounds [3000 x i8], [3000 x i8]* %6, i64 0, i64 0
  %10 = call i64 @strlen(i8* %9) #3
  %11 = trunc i64 %10 to i32
  store i32 %11, i32* %5, align 4
  store i32 0, i32* %4, align 4
  store i32 0, i32* %1, align 4
  store i32 0, i32* %3, align 4
  br label %12

12:                                               ; preds = %19, %0
  %13 = load i32, i32* %3, align 4
  %14 = icmp slt i32 %13, 300
  br i1 %14, label %15, label %22

15:                                               ; preds = %12
  %16 = load i32, i32* %3, align 4
  %17 = sext i32 %16 to i64
  %18 = getelementptr inbounds [300 x i32], [300 x i32]* %2, i64 0, i64 %17
  store i32 0, i32* %18, align 4
  br label %19

19:                                               ; preds = %15
  %20 = load i32, i32* %3, align 4
  %21 = add nsw i32 %20, 1
  store i32 %21, i32* %3, align 4
  br label %12

22:                                               ; preds = %12
  store i32 0, i32* %3, align 4
  br label %23

23:                                               ; preds = %52, %22
  %24 = load i32, i32* %3, align 4
  %25 = load i32, i32* %5, align 4
  %26 = icmp slt i32 %24, %25
  br i1 %26, label %27, label %55

27:                                               ; preds = %23
  %28 = load i32, i32* %3, align 4
  %29 = sext i32 %28 to i64
  %30 = getelementptr inbounds [3000 x i8], [3000 x i8]* %6, i64 0, i64 %29
  %31 = load i8, i8* %30, align 1
  %32 = sext i8 %31 to i32
  %33 = icmp ne i32 %32, 32
  br i1 %33, label %34, label %44

34:                                               ; preds = %27
  %35 = load i32, i32* %1, align 4
  %36 = icmp eq i32 %35, 0
  br i1 %36, label %37, label %38

37:                                               ; preds = %34
  store i32 1, i32* %1, align 4
  br label %38

38:                                               ; preds = %37, %34
  %39 = load i32, i32* %4, align 4
  %40 = sext i32 %39 to i64
  %41 = getelementptr inbounds [300 x i32], [300 x i32]* %2, i64 0, i64 %40
  %42 = load i32, i32* %41, align 4
  %43 = add nsw i32 %42, 1
  store i32 %43, i32* %41, align 4
  br label %51

44:                                               ; preds = %27
  %45 = load i32, i32* %1, align 4
  %46 = icmp ne i32 %45, 0
  br i1 %46, label %47, label %50

47:                                               ; preds = %44
  %48 = load i32, i32* %4, align 4
  %49 = add nsw i32 %48, 1
  store i32 %49, i32* %4, align 4
  br label %50

50:                                               ; preds = %47, %44
  store i32 0, i32* %1, align 4
  br label %51

51:                                               ; preds = %50, %38
  br label %52

52:                                               ; preds = %51
  %53 = load i32, i32* %3, align 4
  %54 = add nsw i32 %53, 1
  store i32 %54, i32* %3, align 4
  br label %23

55:                                               ; preds = %23
  store i32 0, i32* %3, align 4
  br label %56

56:                                               ; preds = %66, %55
  %57 = load i32, i32* %3, align 4
  %58 = load i32, i32* %4, align 4
  %59 = icmp slt i32 %57, %58
  br i1 %59, label %60, label %69

60:                                               ; preds = %56
  %61 = load i32, i32* %3, align 4
  %62 = sext i32 %61 to i64
  %63 = getelementptr inbounds [300 x i32], [300 x i32]* %2, i64 0, i64 %62
  %64 = load i32, i32* %63, align 4
  %65 = call i32 (i8*, ...) @printf(i8* getelementptr inbounds ([4 x i8], [4 x i8]* @.str, i64 0, i64 0), i32 %64)
  br label %66

66:                                               ; preds = %60
  %67 = load i32, i32* %3, align 4
  %68 = add nsw i32 %67, 1
  store i32 %68, i32* %3, align 4
  br label %56

69:                                               ; preds = %56
  %70 = load i32, i32* %3, align 4
  %71 = sext i32 %70 to i64
  %72 = getelementptr inbounds [300 x i32], [300 x i32]* %2, i64 0, i64 %71
  %73 = load i32, i32* %72, align 4
  %74 = call i32 (i8*, ...) @printf(i8* getelementptr inbounds ([3 x i8], [3 x i8]* @.str.1, i64 0, i64 0), i32 %73)
  ret void
}

declare dso_local i32 @gets(...) #1

; Function Attrs: nounwind readonly
declare dso_local i64 @strlen(i8*) #2

declare dso_local i32 @printf(i8*, ...) #1


!llvm.module.flags = !{!0}
!llvm.ident = !{!1}

!0 = !{i32 1, !"wchar_size", i32 4}
!1 = !{!"clang version 10.0.0-4ubuntu1 "}
